target datalayout = "e-m:e-p270:32:32-p271:32:32-p272:64:64-i64:64-i128:128-f80:128-n8:16:32:64-S128"
target triple = "x86_64-pc-linux-gnu"

%struct.expert_field = type { i32, i32 }

@hf_nfapi_cross_carrier_scheduling_flag = internal global i32 0, align 4
@hf_nfapi_carrier_indicator = internal global i32 0, align 4
@hf_nfapi_srs_flag = internal global i32 0, align 4
@hf_nfapi_srs_request = internal global i32 0, align 4
@hf_nfapi_antenna_ports_scrambling_and_layers = internal global i32 0, align 4
@hf_nfapi_total_dci_length_including_padding = internal global i32 0, align 4
@ei_invalid_range = internal global %struct.expert_field zeroinitializer, align 4
@.str.2032 = private unnamed_addr constant [51 x i8] c"Invalid cross carrier scheduling flag value [0..1]\00", align 1
@.str.2033 = private unnamed_addr constant [39 x i8] c"Invalid carrier indicator value [0..7]\00", align 1
@.str.2034 = private unnamed_addr constant [30 x i8] c"Invalid srs flag value [0..1]\00", align 1
@.str.2035 = private unnamed_addr constant [33 x i8] c"Invalid srs request value [0..1]\00", align 1
@.str.2036 = private unnamed_addr constant [58 x i8] c"Invalid antenna ports scrambling and layers value [0..15]\00", align 1

; Function Attrs: nounwind uwtable
define internal void @dissect_dl_config_request_dl_dci_pdu_rel10_value(ptr noundef %0, ptr noundef %1) #0 {
  %3 = alloca ptr, align 8
  %4 = alloca ptr, align 8
  %5 = alloca ptr, align 8
  %6 = alloca i32, align 4
  %7 = alloca i32, align 4
  store ptr %0, ptr %3, align 8
  store ptr %1, ptr %4, align 8
  %8 = load ptr, ptr %3, align 8
  %9 = load i32, ptr @hf_nfapi_cross_carrier_scheduling_flag, align 4
  %10 = call ptr @ptvcursor_add_ret_boolean(ptr noundef %8, i32 noundef %9, i32 noundef 1, i32 noundef 0, ptr noundef %7)
  store ptr %10, ptr %5, align 8
  %11 = load i32, ptr %7, align 4
  %12 = icmp sgt i32 %11, 1
  br i1 %12, label %13, label %17

13:                                               ; preds = %2
  %14 = load ptr, ptr %4, align 8
  %15 = load ptr, ptr %5, align 8
  %16 = call ptr (ptr, ptr, ptr, ptr, ...) @expert_add_info_format(ptr noundef %14, ptr noundef %15, ptr noundef @ei_invalid_range, ptr noundef @.str.2032)
  br label %17

17:                                               ; preds = %13, %2
  %18 = load ptr, ptr %3, align 8
  %19 = load i32, ptr @hf_nfapi_carrier_indicator, align 4
  %20 = call ptr @ptvcursor_add_ret_uint(ptr noundef %18, i32 noundef %19, i32 noundef 1, i32 noundef 0, ptr noundef %6)
  store ptr %20, ptr %5, align 8
  %21 = load i32, ptr %6, align 4
  %22 = icmp ugt i32 %21, 7
  br i1 %22, label %23, label %27

23:                                               ; preds = %17
  %24 = load ptr, ptr %4, align 8
  %25 = load ptr, ptr %5, align 8
  %26 = call ptr (ptr, ptr, ptr, ptr, ...) @expert_add_info_format(ptr noundef %24, ptr noundef %25, ptr noundef @ei_invalid_range, ptr noundef @.str.2033)
  br label %27

27:                                               ; preds = %23, %17
  %28 = load ptr, ptr %3, align 8
  %29 = load i32, ptr @hf_nfapi_srs_flag, align 4
  %30 = call ptr @ptvcursor_add_ret_boolean(ptr noundef %28, i32 noundef %29, i32 noundef 1, i32 noundef 0, ptr noundef %7)
  store ptr %30, ptr %5, align 8
  %31 = load i32, ptr %7, align 4
  %32 = icmp sgt i32 %31, 1
  br i1 %32, label %33, label %37

33:                                               ; preds = %27
  %34 = load ptr, ptr %4, align 8
  %35 = load ptr, ptr %5, align 8
  %36 = call ptr (ptr, ptr, ptr, ptr, ...) @expert_add_info_format(ptr noundef %34, ptr noundef %35, ptr noundef @ei_invalid_range, ptr noundef @.str.2034)
  br label %37

37:                                               ; preds = %33, %27
  %38 = load ptr, ptr %3, align 8
  %39 = load i32, ptr @hf_nfapi_srs_request, align 4
  %40 = call ptr @ptvcursor_add_ret_boolean(ptr noundef %38, i32 noundef %39, i32 noundef 1, i32 noundef 0, ptr noundef %7)
  store ptr %40, ptr %5, align 8
  %41 = load i32, ptr %7, align 4
  %42 = icmp sgt i32 %41, 1
  br i1 %42, label %43, label %47

43:                                               ; preds = %37
  %44 = load ptr, ptr %4, align 8
  %45 = load ptr, ptr %5, align 8
  %46 = call ptr (ptr, ptr, ptr, ptr, ...) @expert_add_info_format(ptr noundef %44, ptr noundef %45, ptr noundef @ei_invalid_range, ptr noundef @.str.2035)
  br label %47

47:                                               ; preds = %43, %37
  %48 = load ptr, ptr %3, align 8
  %49 = load i32, ptr @hf_nfapi_antenna_ports_scrambling_and_layers, align 4
  %50 = call ptr @ptvcursor_add_ret_uint(ptr noundef %48, i32 noundef %49, i32 noundef 1, i32 noundef 0, ptr noundef %6)
  store ptr %50, ptr %5, align 8
  %51 = load i32, ptr %6, align 4
  %52 = icmp ugt i32 %51, 15
  br i1 %52, label %53, label %57

53:                                               ; preds = %47
  %54 = load ptr, ptr %4, align 8
  %55 = load ptr, ptr %5, align 8
  %56 = call ptr (ptr, ptr, ptr, ptr, ...) @expert_add_info_format(ptr noundef %54, ptr noundef %55, ptr noundef @ei_invalid_range, ptr noundef @.str.2036)
  br label %57

57:                                               ; preds = %53, %47
  %58 = load ptr, ptr %3, align 8
  %59 = load i32, ptr @hf_nfapi_total_dci_length_including_padding, align 4
  %60 = call ptr @ptvcursor_add(ptr noundef %58, i32 noundef %59, i32 noundef 1, i32 noundef 0)
  ret void
}